target datalayout = "e-m:e-p270:32:32-p271:32:32-p272:64:64-i64:64-i128:128-f80:128-n8:16:32:64-S128"
target triple = "x86_64-pc-linux-gnu"

@quiet_flag = dso_local global i32 0, align 4
@stderr = external global ptr, align 8
@.str.176 = private unnamed_addr constant [25 x i8] c"invalid debug level: %s\0A\00", align 1

; Function Attrs: nounwind uwtable
define internal i32 @_update_slurmctld_debug(ptr noundef %0) #0 {
  %2 = alloca ptr, align 8
  %3 = alloca ptr, align 8
  %4 = alloca i32, align 4
  %5 = alloca i32, align 4
  store ptr %0, ptr %2, align 8
  call void @llvm.lifetime.start.p0(i64 8, ptr %3) #12
  store ptr null, ptr %3, align 8
  call void @llvm.lifetime.start.p0(i64 4, ptr %4) #12
  store i32 0, ptr %4, align 4
  call void @llvm.lifetime.start.p0(i64 4, ptr %5) #12
  %6 = load ptr, ptr %2, align 8
  %7 = icmp ne ptr %6, null
  br i1 %7, label %8, label %12

8:                                                ; preds = %1
  %9 = load ptr, ptr %2, align 8
  %10 = call i64 @strtoul(ptr noundef %9, ptr noundef %3, i32 noundef 10) #12
  %11 = trunc i64 %10 to i32
  store i32 %11, ptr %5, align 4
  br label %12

12:                                               ; preds = %8, %1
  %13 = load ptr, ptr %2, align 8
  %14 = icmp eq ptr %13, null
  br i1 %14, label %23, label %15

15:                                               ; preds = %12
  %16 = load ptr, ptr %3, align 8
  %17 = load i8, ptr %16, align 1
  %18 = sext i8 %17 to i32
  %19 = icmp ne i32 %18, 0
  br i1 %19, label %23, label %20

20:                                               ; preds = %15
  %21 = load i32, ptr %5, align 4
  %22 = icmp ugt i32 %21, 9
  br i1 %22, label %23, label %31

23:                                               ; preds = %20, %15, %12
  store i32 1, ptr %4, align 4
  %24 = load i32, ptr @quiet_flag, align 4
  %25 = icmp ne i32 %24, 1
  br i1 %25, label %26, label %30

26:                                               ; preds = %23
  %27 = load ptr, ptr @stderr, align 8
  %28 = load ptr, ptr %2, align 8
  %29 = call i32 (ptr, ptr, ...) @fprintf(ptr noundef %27, ptr noundef @.str.176, ptr noundef %28) #12
  br label %30

30:                                               ; preds = %26, %23
  br label %34

31:                                               ; preds = %20
  %32 = load i32, ptr %5, align 4
  %33 = call i32 @slurm_set_debug_level(i32 noundef %32)
  store i32 %33, ptr %4, align 4
  br label %34

34:                                               ; preds = %31, %30
  %35 = load i32, ptr %4, align 4
  call void @llvm.lifetime.end.p0(i64 4, ptr %5) #12
  call void @llvm.lifetime.end.p0(i64 4, ptr %4) #12
  call void @llvm.lifetime.end.p0(i64 8, ptr %3) #12
  ret i32 %35
}