; Function Attrs: nounwind uwtable
define internal fastcc i32 @_update_slurmctld_debug(ptr noundef %0) unnamed_addr #8 {
  %2 = alloca ptr, align 8
  call void @llvm.lifetime.start.p0(i64 8, ptr nonnull %2) #18
  store ptr null, ptr %2, align 8
  %.not = icmp eq ptr %0, null
  br i1 %.not, label %.thread, label %3

3:                                                ; preds = %1
  %4 = call i64 @strtoul(ptr noundef nonnull %0, ptr noundef nonnull %2, i32 noundef 10) #18
  %5 = trunc i64 %4 to i32
  %6 = load ptr, ptr %2, align 8
  %7 = load i8, ptr %6, align 1
  %8 = icmp ne i8 %7, 0
  %9 = icmp ugt i32 %5, 9
  %or.cond = select i1 %8, i1 true, i1 %9
  br i1 %or.cond, label %.thread, label %14

.thread:                                          ; preds = %1, %3
  %10 = load i32, ptr @quiet_flag, align 4
  %.not9 = icmp eq i32 %10, 1
  br i1 %.not9, label %16, label %11

11:                                               ; preds = %.thread
  %12 = load ptr, ptr @stderr, align 8
  %13 = tail call i32 (ptr, ptr, ...) @fprintf(ptr noundef %12, ptr noundef nonnull @.str.176, ptr noundef %0) #22
  br label %16

14:                                               ; preds = %3
  %15 = tail call i32 @slurm_set_debug_level(i32 noundef %5) #18
  br label %16

16:                                               ; preds = %.thread, %11, %14
  %.07 = phi i32 [ 1, %11 ], [ 1, %.thread ], [ %15, %14 ]
  call void @llvm.lifetime.end.p0(i64 8, ptr nonnull %2) #18
  ret i32 %.07
}